; Function Attrs: nounwind uwtable
define internal fastcc void @leaveblock(ptr noundef captures(none) %0) unnamed_addr #0 {
  %2 = getelementptr inbounds nuw i8, ptr %0, i64 40
  %3 = load ptr, ptr %2, align 8, !tbaa !309
  %4 = load ptr, ptr %3, align 8, !tbaa !320
  store ptr %4, ptr %2, align 8, !tbaa !309
  %5 = getelementptr inbounds nuw i8, ptr %0, i64 24
  %6 = load ptr, ptr %5, align 8, !tbaa !304
  %7 = getelementptr inbounds nuw i8, ptr %3, i64 12
  %8 = load i8, ptr %7, align 4, !tbaa !318
  %9 = zext i8 %8 to i32
  %10 = getelementptr i8, ptr %6, i64 48
  %.val = load ptr, ptr %10, align 8, !tbaa !289
  %11 = getelementptr inbounds nuw i8, ptr %.val, i64 74
  %.promoted.i = load i8, ptr %11, align 2, !tbaa !317
  %12 = icmp ult i8 %8, %.promoted.i
  br i1 %12, label %.lr.ph.i, label %removevars.exit

.lr.ph.i:                                         ; preds = %1
  %13 = getelementptr inbounds nuw i8, ptr %.val, i64 48
  %14 = load i32, ptr %13, align 8, !tbaa !306
  %15 = load ptr, ptr %.val, align 8, !tbaa !296
  %16 = getelementptr inbounds nuw i8, ptr %15, i64 48
  %17 = load ptr, ptr %16, align 8, !tbaa !247
  %18 = getelementptr inbounds nuw i8, ptr %.val, i64 196
  %19 = zext i8 %.promoted.i to i64
  %20 = zext i8 %8 to i64
  br label %21

21:                                               ; preds = %21, %.lr.ph.i
  %indvars.iv = phi i64 [ %22, %21 ], [ %19, %.lr.ph.i ]
  %22 = add nsw i64 %indvars.iv, -1
  %23 = getelementptr inbounds nuw [200 x i16], ptr %18, i64 0, i64 %22
  %24 = load i16, ptr %23, align 2, !tbaa !178
  %25 = zext i16 %24 to i64
  %26 = getelementptr inbounds nuw %struct.LocVar, ptr %17, i64 %25, i32 2
  store i32 %14, ptr %26, align 4, !tbaa !336
  %.wide = icmp ugt i64 %22, %20
  br i1 %.wide, label %21, label %._crit_edge.i, !llvm.loop !337

._crit_edge.i:                                    ; preds = %21
  %27 = trunc i64 %22 to i8
  store i8 %27, ptr %11, align 2, !tbaa !317
  br label %removevars.exit

removevars.exit:                                  ; preds = %1, %._crit_edge.i
  %28 = getelementptr inbounds nuw i8, ptr %3, i64 13
  %29 = load i8, ptr %28, align 1, !tbaa !319
  %.not = icmp eq i8 %29, 0
  br i1 %.not, label %36, label %30

30:                                               ; preds = %removevars.exit
  %31 = shl nuw nsw i32 %9, 6
  %32 = or disjoint i32 %31, 35
  %33 = getelementptr inbounds nuw i8, ptr %6, i64 8
  %34 = load i32, ptr %33, align 8, !tbaa !291
  %35 = tail call fastcc i32 @luaK_code(ptr noundef %0, i32 noundef %32, i32 noundef %34)
  br label %36

36:                                               ; preds = %30, %removevars.exit
  %37 = getelementptr inbounds nuw i8, ptr %0, i64 74
  %38 = load i8, ptr %37, align 2, !tbaa !317
  %39 = zext i8 %38 to i32
  %40 = getelementptr inbounds nuw i8, ptr %0, i64 60
  store i32 %39, ptr %40, align 4, !tbaa !323
  %41 = getelementptr inbounds nuw i8, ptr %3, i64 8
  %42 = load i32, ptr %41, align 8, !tbaa !314
  %43 = getelementptr inbounds nuw i8, ptr %0, i64 48
  %44 = load i32, ptr %43, align 8, !tbaa !306
  %45 = getelementptr inbounds nuw i8, ptr %0, i64 52
  store i32 %44, ptr %45, align 4, !tbaa !307
  %46 = getelementptr inbounds nuw i8, ptr %0, i64 56
  %47 = icmp eq i32 %42, -1
  br i1 %47, label %luaK_patchtohere.exit, label %48

48:                                               ; preds = %36
  %49 = load i32, ptr %46, align 4, !tbaa !150
  %50 = icmp eq i32 %49, -1
  br i1 %50, label %52, label %.preheader.i.i

.preheader.i.i:                                   ; preds = %48
  %.val.i.i = load ptr, ptr %0, align 8, !tbaa !296
  %51 = getelementptr i8, ptr %.val.i.i, i64 24
  %.val.val.i.i = load ptr, ptr %51, align 8, !tbaa !144
  br label %53

52:                                               ; preds = %48
  store i32 %42, ptr %46, align 4, !tbaa !150
  br label %luaK_patchtohere.exit

53:                                               ; preds = %53, %.preheader.i.i
  %.0.i.i = phi i32 [ %61, %53 ], [ %49, %.preheader.i.i ]
  %54 = sext i32 %.0.i.i to i64
  %55 = getelementptr inbounds i32, ptr %.val.val.i.i, i64 %54
  %56 = load i32, ptr %55, align 4, !tbaa !150
  %57 = lshr i32 %56, 14
  %58 = add nsw i32 %57, -131071
  %59 = icmp eq i32 %58, -1
  %60 = add nuw nsw i32 %.0.i.i, 1
  %61 = add nsw i32 %60, %58
  %.not13.i.i = icmp eq i32 %61, -1
  %.not.i.i = select i1 %59, i1 true, i1 %.not13.i.i
  br i1 %.not.i.i, label %62, label %53, !llvm.loop !321

62:                                               ; preds = %53
  %.neg.i.i.i = xor i32 %.0.i.i, -1
  %63 = add i32 %42, %.neg.i.i.i
  %64 = tail call i32 @llvm.abs.i32(i32 %63, i1 true)
  %65 = icmp samesign ugt i32 %64, 131071
  br i1 %65, label %66, label %fixjump.exit.i.i

66:                                               ; preds = %62
  %67 = load ptr, ptr %5, align 8, !tbaa !304
  %68 = getelementptr inbounds nuw i8, ptr %67, i64 16
  %69 = load i32, ptr %68, align 8, !tbaa !301
  tail call fastcc void @luaX_lexerror(ptr noundef readonly %67, ptr noundef nonnull @.str.150, i32 noundef %69)
  unreachable

fixjump.exit.i.i:                                 ; preds = %62
  %70 = getelementptr inbounds i32, ptr %.val.val.i.i, i64 %54
  %71 = and i32 %56, 16383
  %72 = shl i32 %63, 14
  %73 = add i32 %72, 2147467264
  %74 = or disjoint i32 %73, %71
  store i32 %74, ptr %70, align 4, !tbaa !150
  br label %luaK_patchtohere.exit

luaK_patchtohere.exit:                            ; preds = %36, %52, %fixjump.exit.i.i
  ret void
}